; ModuleID = 'source-C-CXX/27/1803.c'
source_filename = "source-C-CXX/27/1803.c"
target datalayout = "e-m:e-p270:32:32-p271:32:32-p272:64:64-i64:64-f80:128-n8:16:32:64-S128"
target triple = "x86_64-pc-linux-gnu"

@str = dso_local global [100000 x i8] zeroinitializer, align 16
@.str = private unnamed_addr constant [4 x i8] c"%d,\00", align 1
@.str.1 = private unnamed_addr constant [4 x i8] c"%d\0A\00", align 1

; Function Attrs: nounwind sspstrong uwtable
define dso_local i32 @main(i32 %0, i8** nocapture readnone %1) local_unnamed_addr #0 {
  %3 = alloca [300 x i32], align 16
  %4 = bitcast [300 x i32]* %3 to i8*
  call void @llvm.lifetime.start.p0i8(i64 1200, i8* nonnull %4) #5
  %5 = tail call i32 (i8*, ...) bitcast (i32 (...)* @gets to i32 (i8*, ...)*)(i8* getelementptr inbounds ([100000 x i8], [100000 x i8]* @str, i64 0, i64 0)) #5
  %6 = tail call i64 @strlen(i8* noundef nonnull dereferenceable(1) getelementptr inbounds ([100000 x i8], [100000 x i8]* @str, i64 0, i64 0)) #6
  %7 = trunc i64 %6 to i32
  %8 = icmp sgt i32 %7, 0
  br i1 %8, label %9, label %54

9:                                                ; preds = %2
  %10 = shl i64 %6, 32
  %11 = ashr exact i64 %10, 32
  br label %12

12:                                               ; preds = %9, %42
  %13 = phi i32 [ %44, %42 ], [ 0, %9 ]
  %14 = phi i32 [ %45, %42 ], [ 0, %9 ]
  %15 = sext i32 %14 to i64
  %16 = getelementptr inbounds [100000 x i8], [100000 x i8]* @str, i64 0, i64 %15
  %17 = load i8, i8* %16, align 1, !tbaa !5
  %18 = icmp ne i8 %17, 32
  %19 = icmp slt i32 %14, %7
  %20 = select i1 %18, i1 %19, i1 false
  br i1 %20, label %26, label %42

21:                                               ; preds = %42
  %22 = add i32 %44, -1
  %23 = icmp sgt i32 %44, 1
  br i1 %23, label %24, label %54

24:                                               ; preds = %21
  %25 = zext i32 %22 to i64
  br label %47

26:                                               ; preds = %12, %26
  %27 = phi i64 [ %30, %26 ], [ %15, %12 ]
  %28 = phi i32 [ %29, %26 ], [ 0, %12 ]
  %29 = add nuw nsw i32 %28, 1
  %30 = add nsw i64 %27, 1
  %31 = getelementptr inbounds [100000 x i8], [100000 x i8]* @str, i64 0, i64 %30
  %32 = load i8, i8* %31, align 1, !tbaa !5
  %33 = icmp ne i8 %32, 32
  %34 = icmp slt i64 %30, %11
  %35 = select i1 %33, i1 %34, i1 false
  br i1 %35, label %26, label %36, !llvm.loop !8

36:                                               ; preds = %26
  %37 = trunc i64 %30 to i32
  br i1 %20, label %38, label %42

38:                                               ; preds = %36
  %39 = add nsw i32 %13, 1
  %40 = sext i32 %13 to i64
  %41 = getelementptr inbounds [300 x i32], [300 x i32]* %3, i64 0, i64 %40
  store i32 %29, i32* %41, align 4, !tbaa !10
  br label %42

42:                                               ; preds = %12, %38, %36
  %43 = phi i32 [ %37, %38 ], [ %37, %36 ], [ %14, %12 ]
  %44 = phi i32 [ %39, %38 ], [ %13, %36 ], [ %13, %12 ]
  %45 = add nsw i32 %43, 1
  %46 = icmp slt i32 %45, %7
  br i1 %46, label %12, label %21, !llvm.loop !12

47:                                               ; preds = %24, %47
  %48 = phi i64 [ 0, %24 ], [ %52, %47 ]
  %49 = getelementptr inbounds [300 x i32], [300 x i32]* %3, i64 0, i64 %48
  %50 = load i32, i32* %49, align 4, !tbaa !10
  %51 = tail call i32 (i8*, ...) @printf(i8* nonnull dereferenceable(1) getelementptr inbounds ([4 x i8], [4 x i8]* @.str, i64 0, i64 0), i32 %50)
  %52 = add nuw nsw i64 %48, 1
  %53 = icmp eq i64 %52, %25
  br i1 %53, label %54, label %47, !llvm.loop !13

54:                                               ; preds = %47, %2, %21
  %55 = phi i32 [ %22, %21 ], [ -1, %2 ], [ %22, %47 ]
  %56 = sext i32 %55 to i64
  %57 = getelementptr inbounds [300 x i32], [300 x i32]* %3, i64 0, i64 %56
  %58 = load i32, i32* %57, align 4, !tbaa !10
  %59 = tail call i32 (i8*, ...) @printf(i8* nonnull dereferenceable(1) getelementptr inbounds ([4 x i8], [4 x i8]* @.str.1, i64 0, i64 0), i32 %58)
  call void @llvm.lifetime.end.p0i8(i64 1200, i8* nonnull %4) #5
  ret i32 0
}

; Function Attrs: argmemonly mustprogress nofree nosync nounwind willreturn
declare void @llvm.lifetime.start.p0i8(i64 immarg, i8* nocapture) #1

declare i32 @gets(...) local_unnamed_addr #2

; Function Attrs: argmemonly mustprogress nofree nounwind readonly willreturn
declare i64 @strlen(i8* nocapture) local_unnamed_addr #3

; Function Attrs: nofree nounwind
declare noundef i32 @printf(i8* nocapture noundef readonly, ...) local_unnamed_addr #4

; Function Attrs: argmemonly mustprogress nofree nosync nounwind willreturn
declare void @llvm.lifetime.end.p0i8(i64 immarg, i8* nocapture) #1


!llvm.module.flags = !{!0, !1, !2, !3}
!llvm.ident = !{!4}

!0 = !{i32 1, !"wchar_size", i32 4}
!1 = !{i32 7, !"PIC Level", i32 2}
!2 = !{i32 7, !"PIE Level", i32 2}
!3 = !{i32 7, !"uwtable", i32 1}
!4 = !{!"clang version 13.0.0"}
!5 = !{!6, !6, i64 0}
!6 = !{!"omnipotent char", !7, i64 0}
!7 = !{!"Simple C/C++ TBAA"}
!8 = distinct !{!8, !9}
!9 = !{!"llvm.loop.mustprogress"}
!10 = !{!11, !11, i64 0}
!11 = !{!"int", !6, i64 0}
!12 = distinct !{!12, !9}
!13 = distinct !{!13, !9}
